; Function Attrs: mustprogress uwtable
define void @_ZN5arrow8internal18SendSignalToThreadEim(ptr dead_on_unwind noalias writable sret(%"class.arrow::Status") align 8 %0, i32 noundef %1, i64 noundef %2) local_unnamed_addr #3 {
  %4 = alloca i32, align 4
  store i32 %1, ptr %4, align 4, !tbaa !38
  %5 = tail call i32 @pthread_kill(i64 noundef %2, i32 noundef %1) #38
  switch i32 %5, label %8 [
    i32 0, label %6
    i32 22, label %7
  ]

6:                                                ; preds = %3
  store ptr null, ptr %0, align 8, !tbaa !89, !alias.scope !660
  br label %9

7:                                                ; preds = %3
  call void @_ZN5arrow6Status8FromArgsIJRA23_KcRiEEES0_NS_10StatusCodeEDpOT_(ptr dead_on_unwind writable sret(%"class.arrow::Status") align 8 %0, i8 noundef signext 4, ptr noundef nonnull align 1 dereferenceable(23) @.str.26, ptr noundef nonnull align 4 dereferenceable(4) %4)
  br label %9

8:                                                ; preds = %3
  tail call void @_ZN5arrow8internal15StatusFromErrnoIJRA23_KcEEENS_6StatusEiNS_10StatusCodeEDpOT_(ptr dead_on_unwind writable sret(%"class.arrow::Status") align 8 %0, i32 noundef %5, i8 noundef signext 5, ptr noundef nonnull align 1 dereferenceable(23) @.str.27)
  br label %9

9:                                                ; preds = %8, %7, %6
  ret void
}